; Function Attrs: mustprogress nofree norecurse nosync nounwind willreturn memory(read, inaccessiblemem: none) uwtable
define hidden noundef zeroext i1 @_ZNK3sat6clause8containsENS_7literalE(ptr noundef nonnull readonly align 4 dereferenceable(20) %this, i32 %l.coerce) local_unnamed_addr #6 align 2 {
entry:
  %m_size.i = getelementptr inbounds i8, ptr %this, i64 4
  %0 = load i32, ptr %m_size.i, align 4
  %idx.ext.i = zext i32 %0 to i64
  %add.ptr.i.idx = shl nuw nsw i64 %idx.ext.i, 2
  %1 = getelementptr i8, ptr %this, i64 %add.ptr.i.idx
  %add.ptr.i.ptr = getelementptr i8, ptr %1, i64 20
  %cmp.not5.not = icmp eq i32 %0, 0
  br i1 %cmp.not5.not, label %return, label %for.body.preheader

for.body.preheader:                               ; preds = %entry
  %m_lits.i.ptr = getelementptr inbounds i8, ptr %this, i64 20
  br label %for.body

for.body:                                         ; preds = %for.body, %for.body.preheader
  %__begin1.06 = phi ptr [ %m_lits.i.ptr, %for.body.preheader ], [ %incdec.ptr, %for.body ]
  %2 = load i32, ptr %__begin1.06, align 4
  %cmp.i = icmp eq i32 %2, %l.coerce
  %incdec.ptr = getelementptr inbounds i8, ptr %__begin1.06, i64 4
  %cmp.not.not = icmp eq ptr %incdec.ptr, %add.ptr.i.ptr
  %or.cond = select i1 %cmp.i, i1 true, i1 %cmp.not.not
  br i1 %or.cond, label %return, label %for.body

return:                                           ; preds = %for.body, %entry
  %cmp.not.lcssa = phi i1 [ false, %entry ], [ %cmp.i, %for.body ]
  ret i1 %cmp.not.lcssa
}